; Function Attrs: null_pointer_is_valid sspstrong uwtable
define internal i32 @dissect_returntokenidp(ptr noundef %0, i32 noundef %1, ptr noundef %2, ptr noundef %3, ptr noundef %4, ptr noundef %5) #0 {
  %7 = alloca ptr, align 8
  %8 = alloca i32, align 4
  %9 = alloca i32, align 4
  call void @llvm.lifetime.start.p0(i64 8, ptr nonnull %7) #4
  store ptr null, ptr %7, align 8
  call void @llvm.lifetime.start.p0(i64 4, ptr nonnull %8) #4
  call void @llvm.lifetime.start.p0(i64 4, ptr nonnull %9) #4
  %10 = getelementptr inbounds nuw i8, ptr %4, i64 25
  %11 = load i8, ptr %10, align 1, !range !6, !noundef !7
  %12 = trunc nuw i8 %11 to i1
  br i1 %12, label %28, label %13

13:                                               ; preds = %6
  %.not = icmp eq ptr %3, null
  br i1 %.not, label %17, label %14

14:                                               ; preds = %13
  %15 = load i32, ptr @ett_fileexp_returntokenidp, align 4
  %16 = call ptr @proto_tree_add_subtree(ptr noundef nonnull %3, ptr noundef %0, i32 noundef %1, i32 noundef -1, i32 noundef %15, ptr noundef nonnull %7, ptr noundef nonnull @.str.447)
  br label %17

17:                                               ; preds = %14, %13
  %.023 = phi ptr [ %16, %14 ], [ null, %13 ]
  %18 = load i32, ptr @hf_fileexp_returntokenidp_high, align 4
  %19 = call i32 @dissect_ndr_uint32(ptr noundef %0, i32 noundef %1, ptr noundef %2, ptr noundef %.023, ptr noundef %4, ptr noundef %5, i32 noundef %18, ptr noundef nonnull %8)
  %20 = load i32, ptr @hf_fileexp_returntokenidp_low, align 4
  %21 = call i32 @dissect_ndr_uint32(ptr noundef %0, i32 noundef %19, ptr noundef %2, ptr noundef %.023, ptr noundef %4, ptr noundef %5, i32 noundef %20, ptr noundef nonnull %9)
  %22 = getelementptr inbounds nuw i8, ptr %2, i64 8
  %23 = load ptr, ptr %22, align 8
  %24 = load i32, ptr %8, align 4
  %25 = load i32, ptr %9, align 4
  call void (ptr, i32, ptr, ...) @col_append_fstr(ptr noundef %23, i32 noundef 25, ptr noundef nonnull @.str.448, i32 noundef %24, i32 noundef %25)
  %26 = load ptr, ptr %7, align 8
  %27 = sub i32 %21, %1
  call void @proto_item_set_len(ptr noundef %26, i32 noundef %27)
  br label %28

28:                                               ; preds = %6, %17
  %.0 = phi i32 [ %21, %17 ], [ %1, %6 ]
  call void @llvm.lifetime.end.p0(i64 4, ptr nonnull %9) #4
  call void @llvm.lifetime.end.p0(i64 4, ptr nonnull %8) #4
  call void @llvm.lifetime.end.p0(i64 8, ptr nonnull %7) #4
  ret i32 %.0
}